target datalayout = "e-m:e-p270:32:32-p271:32:32-p272:64:64-i64:64-i128:128-f80:128-n8:16:32:64-S128"
target triple = "x86_64-pc-linux-gnu"

%struct.Rtm_Obj_t_ = type { ptr, i32, i32, i32, i32, [0 x ptr] }

; Function Attrs: inlinehint nounwind uwtable
define internal i32 @Abc_MaxInt(i32 noundef %0, i32 noundef %1) #5 {
  %3 = alloca i32, align 4
  %4 = alloca i32, align 4
  store i32 %0, ptr %3, align 4, !tbaa !21
  store i32 %1, ptr %4, align 4, !tbaa !21
  %5 = load i32, ptr %3, align 4, !tbaa !21
  %6 = load i32, ptr %4, align 4, !tbaa !21
  %7 = icmp sgt i32 %5, %6
  br i1 %7, label %8, label %10

8:                                                ; preds = %2
  %9 = load i32, ptr %3, align 4, !tbaa !21
  br label %12

10:                                               ; preds = %2
  %11 = load i32, ptr %4, align 4, !tbaa !21
  br label %12

12:                                               ; preds = %10, %8
  %13 = phi i32 [ %9, %8 ], [ %11, %10 ]
  ret i32 %13
}

; Function Attrs: inlinehint nounwind uwtable
define internal ptr @Rtm_ObjFanin(ptr noundef %0, i32 noundef %1) #5 {
  %3 = alloca ptr, align 8
  %4 = alloca i32, align 4
  store ptr %0, ptr %3, align 8, !tbaa !40
  store i32 %1, ptr %4, align 4, !tbaa !21
  %5 = load ptr, ptr %3, align 8, !tbaa !40
  %6 = getelementptr inbounds nuw %struct.Rtm_Obj_t_, ptr %5, i32 0, i32 5
  %7 = load i32, ptr %4, align 4, !tbaa !21
  %8 = mul nsw i32 2, %7
  %9 = sext i32 %8 to i64
  %10 = getelementptr inbounds [0 x ptr], ptr %6, i64 0, i64 %9
  %11 = load ptr, ptr %10, align 8, !tbaa !45
  ret ptr %11
}

; Function Attrs: nounwind uwtable
define i32 @Rtm_ObjGetDegreeFwd(ptr noundef %0) #0 {
  %2 = alloca ptr, align 8
  %3 = alloca ptr, align 8
  %4 = alloca i32, align 4
  %5 = alloca i32, align 4
  store ptr %0, ptr %2, align 8, !tbaa !40
  call void @llvm.lifetime.start.p0(i64 8, ptr %3) #11
  call void @llvm.lifetime.start.p0(i64 4, ptr %4) #11
  call void @llvm.lifetime.start.p0(i64 4, ptr %5) #11
  store i32 0, ptr %5, align 4, !tbaa !21
  store i32 0, ptr %4, align 4, !tbaa !21
  br label %6

6:                                                ; preds = %29, %1
  %7 = load i32, ptr %4, align 4, !tbaa !21
  %8 = load ptr, ptr %2, align 8, !tbaa !40
  %9 = getelementptr inbounds nuw %struct.Rtm_Obj_t_, ptr %8, i32 0, i32 1
  %10 = load i32, ptr %9, align 8
  %11 = lshr i32 %10, 7
  %12 = and i32 %11, 255
  %13 = zext i32 %12 to i64
  %14 = trunc i64 %13 to i32
  %15 = icmp slt i32 %7, %14
  br i1 %15, label %16, label %20

16:                                               ; preds = %6
  %17 = load ptr, ptr %2, align 8, !tbaa !40
  %18 = load i32, ptr %4, align 4, !tbaa !21
  %19 = call ptr @Rtm_ObjFanin(ptr noundef %17, i32 noundef %18)
  store ptr %19, ptr %3, align 8, !tbaa !40
  br label %20

20:                                               ; preds = %16, %6
  %21 = phi i1 [ false, %6 ], [ true, %16 ]
  br i1 %21, label %22, label %32

22:                                               ; preds = %20
  %23 = load i32, ptr %5, align 4, !tbaa !21
  %24 = load ptr, ptr %3, align 8, !tbaa !40
  %25 = getelementptr inbounds nuw %struct.Rtm_Obj_t_, ptr %24, i32 0, i32 1
  %26 = load i32, ptr %25, align 8
  %27 = lshr i32 %26, 15
  %28 = call i32 @Abc_MaxInt(i32 noundef %23, i32 noundef %27)
  store i32 %28, ptr %5, align 4, !tbaa !21
  br label %29

29:                                               ; preds = %22
  %30 = load i32, ptr %4, align 4, !tbaa !21
  %31 = add nsw i32 %30, 1
  store i32 %31, ptr %4, align 4, !tbaa !21
  br label %6, !llvm.loop !52

32:                                               ; preds = %20
  %33 = load i32, ptr %5, align 4, !tbaa !21
  %34 = add nsw i32 %33, 1
  call void @llvm.lifetime.end.p0(i64 4, ptr %5) #11
  call void @llvm.lifetime.end.p0(i64 4, ptr %4) #11
  call void @llvm.lifetime.end.p0(i64 8, ptr %3) #11
  ret i32 %34
}