; Function Attrs: nofree norecurse nosync nounwind memory(read, inaccessiblemem: none) uwtable
define range(i32 1, 131073) i32 @Rtm_ObjGetDegreeFwd(ptr noundef readonly captures(none) %0) local_unnamed_addr #8 {
  %2 = getelementptr inbounds nuw i8, ptr %0, i64 8
  %3 = load i32, ptr %2, align 8
  %4 = lshr i32 %3, 7
  %5 = and i32 %4, 255
  %.not = icmp eq i32 %5, 0
  br i1 %.not, label %.critedge, label %.lr.ph

.lr.ph:                                           ; preds = %1
  %6 = getelementptr inbounds nuw i8, ptr %0, i64 24
  %wide.trip.count = zext nneg i32 %5 to i64
  br label %7

7:                                                ; preds = %.lr.ph, %7
  %indvars.iv = phi i64 [ 0, %.lr.ph ], [ %indvars.iv.next, %7 ]
  %.09 = phi i32 [ 0, %.lr.ph ], [ %14, %7 ]
  %8 = shl nuw nsw i64 %indvars.iv, 1
  %9 = getelementptr inbounds nuw [0 x ptr], ptr %6, i64 0, i64 %8
  %10 = load ptr, ptr %9, align 8, !tbaa !34
  %11 = getelementptr inbounds nuw i8, ptr %10, i64 8
  %12 = load i32, ptr %11, align 8
  %13 = lshr i32 %12, 15
  %14 = tail call range(i32 -2147483647, -2147483648) i32 @llvm.smax.i32(i32 %.09, i32 range(i32 -2147483647, -2147483648) %13)
  %indvars.iv.next = add nuw nsw i64 %indvars.iv, 1
  %exitcond.not = icmp eq i64 %indvars.iv.next, %wide.trip.count
  br i1 %exitcond.not, label %.critedge.loopexit, label %7, !llvm.loop !44

.critedge.loopexit:                               ; preds = %7
  %15 = add nuw nsw i32 %14, 1
  br label %.critedge

.critedge:                                        ; preds = %.critedge.loopexit, %1
  %.0.lcssa = phi i32 [ 1, %1 ], [ %15, %.critedge.loopexit ]
  ret i32 %.0.lcssa
}